(dp0
(I70
I100
tp1
(dp2
(I0
F2.4
tp3
(dp4
S'c'
p5
F0.14311179418763972
sS'b'
p6
F1.0656115028174251
sS'other'
p7
F0.021922584948433587
sss(I600
I1000
tp8
(dp9
(I0
F2.4
tp10
(dp11
g5
F0.24356060606060606
sg6
F0.9917133804533268
sg7
F0.07947477539737388
sss(I200
I300
tp12
(dp13
(I0
F2.4
tp14
(dp15
g5
F0.17419097823770832
sg6
F1.081232021105831
sg7
F0.02983218818501667
sss(I20
I30
tp16
(dp17
(I0
F2.4
tp18
(dp19
g5
F0.211717656956311
sg6
F0.9493996240457283
sg7
F0.10838536178778681
sss(I100
I140
tp20
(dp21
(I0
F2.4
tp22
(dp23
g5
F0.1437876451111394
sg6
F1.0738301555910421
sg7
F0.02103301948140329
sss(I1000
I-1
tp24
(dp25
(I0
F2.4
tp26
(dp27
g5
F0.2743362831858407
sg6
F0.8959668300037693
sg7
F0.14739884393063585
sss(I50
I70
tp28
(dp29
(I0
F2.4
tp30
(dp31
g5
F0.1493418902183571
sg6
F1.0529454866091665
sg7
F0.028431564209956774
sss(I300
I600
tp32
(dp33
(I0
F2.4
tp34
(dp35
g5
F0.21624447420070803
sg6
F1.0653440775236167
sg7
F0.051018694055818194
sss(I30
I50
tp36
(dp37
(I0
F2.4
tp38
(dp39
g5
F0.17584491119372908
sg6
F1.024891274830478
sg7
F0.054477852155005356
sss(I140
I200
tp40
(dp41
(I0
F2.4
tp42
(dp43
g5
F0.15276372019793072
sg6
F1.0809745593436682
sg7
F0.022098382242287433
sss.