(dp0
(I70
I100
tp1
(dp2
(I0
F2.4
tp3
(dp4
S'c'
p5
F0.1426511516950725
sS'b'
p6
F0.7705346789917926
sS'other'
p7
F0.012291462844017186
sss(I600
I1000
tp8
(dp9
(I0
F2.4
tp10
(dp11
g5
F0.26182820395039047
sg6
F0.7368658195908804
sg7
F0.07390127834281982
sss(I200
I300
tp12
(dp13
(I0
F2.4
tp14
(dp15
g5
F0.17347415230683713
sg6
F0.7846339848585163
sg7
F0.019734841231400024
sss(I20
I30
tp16
(dp17
(I0
F2.4
tp18
(dp19
g5
F0.18920385091101097
sg6
F0.6616712041169894
sg7
F0.05938287993305567
sss(I100
I140
tp20
(dp21
(I0
F2.4
tp22
(dp23
g5
F0.14254250470659213
sg6
F0.7768501603539967
sg7
F0.012243715931127264
sss(I1000
I-1
tp24
(dp25
(I0
F2.4
tp26
(dp27
g5
F0.24390243902439024
sg6
F0.6485929993136582
sg7
F0.12740899357601712
sss(I50
I70
tp28
(dp29
(I0
F2.4
tp30
(dp31
g5
F0.14652753372441946
sg6
F0.7569568102326871
sg7
F0.015053307825012066
sss(I300
I600
tp32
(dp33
(I0
F2.4
tp34
(dp35
g5
F0.22003499562554682
sg6
F0.7785104415923428
sg7
F0.03987922402400085
sss(I30
I50
tp36
(dp37
(I0
F2.4
tp38
(dp39
g5
F0.16390458897044408
sg6
F0.7266070643518933
sg7
F0.028311127953903663
sss(I140
I200
tp40
(dp41
(I0
F2.4
tp42
(dp43
g5
F0.15345725891910986
sg6
F0.7836716932203691
sg7
F0.014336469791010083
sss.